; Function Attrs: nounwind uwtable
define dso_local range(i32 0, 2) i32 @WPACKET_init(ptr noundef captures(none) %0, ptr noundef %1) local_unnamed_addr #0 {
  %.not.i = icmp eq ptr %1, null
  br i1 %.not.i, label %WPACKET_init_len.exit, label %3, !prof !24

3:                                                ; preds = %2
  %4 = getelementptr inbounds nuw i8, ptr %0, i64 8
  store ptr null, ptr %4, align 8, !tbaa !20
  store ptr %1, ptr %0, align 8, !tbaa !17
  %5 = getelementptr inbounds nuw i8, ptr %0, i64 32
  store i64 -1, ptr %5, align 8, !tbaa !15
  %6 = getelementptr inbounds nuw i8, ptr %0, i64 48
  %7 = load i8, ptr %6, align 8
  %8 = and i8 %7, -2
  store i8 %8, ptr %6, align 8
  %9 = getelementptr inbounds nuw i8, ptr %0, i64 16
  tail call void @llvm.memset.p0.i64(ptr noundef nonnull align 8 dereferenceable(16) %9, i8 0, i64 16, i1 false)
  %10 = tail call noalias ptr @CRYPTO_zalloc(i64 noundef 40, ptr noundef nonnull @.str, i32 noundef 110) #12
  %11 = getelementptr inbounds nuw i8, ptr %0, i64 40
  store ptr %10, ptr %11, align 8, !tbaa !4
  %12 = icmp ne ptr %10, null
  %spec.select = zext i1 %12 to i32
  br label %WPACKET_init_len.exit

WPACKET_init_len.exit:                            ; preds = %3, %2
  %.0.i = phi i32 [ 0, %2 ], [ %spec.select, %3 ]
  ret i32 %.0.i
}